; Function Attrs: mustprogress nofree norecurse nosync nounwind willreturn memory(read, inaccessiblemem: none) uwtable
define hidden noundef i32 @_ZNK3sat6solver6statusERKNS_6clauseE(ptr nocapture noundef nonnull readonly align 8 dereferenceable(4408) %this, ptr noundef nonnull readonly align 4 dereferenceable(20) %c) local_unnamed_addr #11 align 2 {
entry:
  %m_size.i = getelementptr inbounds i8, ptr %c, i64 4
  %0 = load i32, ptr %m_size.i, align 4
  %idx.ext.i = zext i32 %0 to i64
  %add.ptr.i.idx = shl nuw nsw i64 %idx.ext.i, 2
  %1 = getelementptr i8, ptr %c, i64 %add.ptr.i.idx
  %add.ptr.i.ptr = getelementptr i8, ptr %1, i64 20
  %cmp.not6 = icmp eq i32 %0, 0
  br i1 %cmp.not6, label %return, label %for.body.lr.ph

for.body.lr.ph:                                   ; preds = %entry
  %m_lits.i.ptr = getelementptr inbounds i8, ptr %c, i64 20
  %m_assignment.i = getelementptr inbounds i8, ptr %this, i64 3440
  %2 = load ptr, ptr %m_assignment.i, align 8
  br label %for.body

for.body:                                         ; preds = %for.body.lr.ph, %for.inc
  %found_undef.08 = phi i8 [ 0, %for.body.lr.ph ], [ %found_undef.1, %for.inc ]
  %__begin1.07 = phi ptr [ %m_lits.i.ptr, %for.body.lr.ph ], [ %incdec.ptr, %for.inc ]
  %lit.sroa.0.0.copyload = load i32, ptr %__begin1.07, align 4
  %idxprom.i.i = zext i32 %lit.sroa.0.0.copyload to i64
  %arrayidx.i.i = getelementptr inbounds i32, ptr %2, i64 %idxprom.i.i
  %3 = load i32, ptr %arrayidx.i.i, align 4
  switch i32 %3, label %for.inc [
    i32 1, label %return
    i32 0, label %sw.bb4
  ]

sw.bb4:                                           ; preds = %for.body
  br label %for.inc

for.inc:                                          ; preds = %sw.bb4, %for.body
  %found_undef.1 = phi i8 [ %found_undef.08, %for.body ], [ 1, %sw.bb4 ]
  %incdec.ptr = getelementptr inbounds i8, ptr %__begin1.07, i64 4
  %cmp.not = icmp eq ptr %incdec.ptr, %add.ptr.i.ptr
  br i1 %cmp.not, label %for.end.loopexit, label %for.body

for.end.loopexit:                                 ; preds = %for.inc
  %4 = and i8 %found_undef.1, 1
  %5 = add nsw i8 %4, -1
  %6 = sext i8 %5 to i32
  br label %return

return:                                           ; preds = %for.body, %entry, %for.end.loopexit
  %retval.0 = phi i32 [ -1, %entry ], [ %6, %for.end.loopexit ], [ %3, %for.body ]
  ret i32 %retval.0
}